target datalayout = "e-m:e-p270:32:32-p271:32:32-p272:64:64-i64:64-i128:128-f80:128-n8:16:32:64-S128"
target triple = "x86_64-unknown-linux-gnu"

%"class.pugi::xpath_node" = type { %"class.pugi::xml_node", %"class.pugi::xml_attribute" }
%"class.pugi::xml_node" = type { ptr }
%"class.pugi::xml_attribute" = type { ptr }
%"struct.pugi::xml_node_struct" = type { i64, ptr, ptr, ptr, ptr, ptr, ptr, ptr }
%"class.pugi::impl::(anonymous namespace)::xpath_ast_node" = type { i8, i8, i8, i8, ptr, ptr, ptr, %union.anon.15 }
%union.anon.15 = type { ptr }

@_ZN4pugi8xml_nodeC1EPNS_15xml_node_structE = unnamed_addr alias void (ptr, ptr), ptr @_ZN4pugi8xml_nodeC2EPNS_15xml_node_structE
@_ZN4pugi10xpath_nodeC1ERKNS_8xml_nodeE = unnamed_addr alias void (ptr, ptr), ptr @_ZN4pugi10xpath_nodeC2ERKNS_8xml_nodeE

; Function Attrs: mustprogress nounwind uwtable
define internal noundef zeroext i1 @_ZN4pugi4impl12_GLOBAL__N_111starts_withEPKcS3_(ptr noundef %string, ptr noundef %pattern) #0 {
entry:
  %string.addr = alloca ptr, align 8
  %pattern.addr = alloca ptr, align 8
  store ptr %string, ptr %string.addr, align 8
  store ptr %pattern, ptr %pattern.addr, align 8
  br label %while.cond

while.cond:                                       ; preds = %while.body, %entry
  %0 = load ptr, ptr %pattern.addr, align 8
  %1 = load i8, ptr %0, align 1
  %tobool = icmp ne i8 %1, 0
  br i1 %tobool, label %land.rhs, label %land.end

land.rhs:                                         ; preds = %while.cond
  %2 = load ptr, ptr %string.addr, align 8
  %3 = load i8, ptr %2, align 1
  %conv = sext i8 %3 to i32
  %4 = load ptr, ptr %pattern.addr, align 8
  %5 = load i8, ptr %4, align 1
  %conv1 = sext i8 %5 to i32
  %cmp = icmp eq i32 %conv, %conv1
  br label %land.end

land.end:                                         ; preds = %land.rhs, %while.cond
  %6 = phi i1 [ false, %while.cond ], [ %cmp, %land.rhs ]
  br i1 %6, label %while.body, label %while.end

while.body:                                       ; preds = %land.end
  %7 = load ptr, ptr %string.addr, align 8
  %incdec.ptr = getelementptr inbounds i8, ptr %7, i32 1
  store ptr %incdec.ptr, ptr %string.addr, align 8
  %8 = load ptr, ptr %pattern.addr, align 8
  %incdec.ptr2 = getelementptr inbounds i8, ptr %8, i32 1
  store ptr %incdec.ptr2, ptr %pattern.addr, align 8
  br label %while.cond, !llvm.loop !244

while.end:                                        ; preds = %land.end
  %9 = load ptr, ptr %pattern.addr, align 8
  %10 = load i8, ptr %9, align 1
  %conv3 = sext i8 %10 to i32
  %cmp4 = icmp eq i32 %conv3, 0
  ret i1 %cmp4
}

; Function Attrs: mustprogress nounwind uwtable
define internal noundef zeroext i1 @_ZN4pugi4impl12_GLOBAL__N_18strequalEPKcS3_(ptr noundef %src, ptr noundef %dst) #0 {
entry:
  %src.addr = alloca ptr, align 8
  %dst.addr = alloca ptr, align 8
  store ptr %src, ptr %src.addr, align 8
  store ptr %dst, ptr %dst.addr, align 8
  %0 = load ptr, ptr %src.addr, align 8
  %1 = load ptr, ptr %dst.addr, align 8
  %call = call i32 @strcmp(ptr noundef %0, ptr noundef %1) #15
  %cmp = icmp eq i32 %call, 0
  ret i1 %cmp
}

; Function Attrs: mustprogress uwtable
define internal noundef zeroext i1 @_ZN4pugi4impl12_GLOBAL__N_114xpath_ast_node9step_pushERNS1_18xpath_node_set_rawEPNS_15xml_node_structEPNS1_15xpath_allocatorE(ptr noundef nonnull align 8 dereferenceable(40) %this, ptr noundef nonnull align 8 dereferenceable(32) %ns, ptr noundef %n, ptr noundef %alloc) #2 align 2 {
entry:
  %retval = alloca i1, align 1
  %this.addr = alloca ptr, align 8
  %ns.addr = alloca ptr, align 8
  %n.addr = alloca ptr, align 8
  %alloc.addr = alloca ptr, align 8
  %type = alloca i32, align 4
  %ref.tmp = alloca %"class.pugi::xpath_node", align 8
  %ref.tmp5 = alloca %"class.pugi::xml_node", align 8
  %ref.tmp7 = alloca %"class.pugi::xpath_node", align 8
  %ref.tmp8 = alloca %"class.pugi::xml_node", align 8
  %ref.tmp12 = alloca %"class.pugi::xpath_node", align 8
  %ref.tmp13 = alloca %"class.pugi::xml_node", align 8
  %ref.tmp19 = alloca %"class.pugi::xpath_node", align 8
  %ref.tmp20 = alloca %"class.pugi::xml_node", align 8
  %ref.tmp25 = alloca %"class.pugi::xpath_node", align 8
  %ref.tmp26 = alloca %"class.pugi::xml_node", align 8
  %ref.tmp38 = alloca %"class.pugi::xpath_node", align 8
  %ref.tmp39 = alloca %"class.pugi::xml_node", align 8
  %ref.tmp44 = alloca %"class.pugi::xpath_node", align 8
  %ref.tmp45 = alloca %"class.pugi::xml_node", align 8
  %ref.tmp57 = alloca %"class.pugi::xpath_node", align 8
  %ref.tmp58 = alloca %"class.pugi::xml_node", align 8
  store ptr %this, ptr %this.addr, align 8
  store ptr %ns, ptr %ns.addr, align 8
  store ptr %n, ptr %n.addr, align 8
  store ptr %alloc, ptr %alloc.addr, align 8
  %this1 = load ptr, ptr %this.addr, align 8
  %0 = load ptr, ptr %n.addr, align 8
  %header = getelementptr inbounds %"struct.pugi::xml_node_struct", ptr %0, i32 0, i32 0
  %1 = load i64, ptr %header, align 8
  %and = and i64 %1, 15
  %conv = trunc i64 %and to i32
  store i32 %conv, ptr %type, align 4
  %_test = getelementptr inbounds %"class.pugi::impl::(anonymous namespace)::xpath_ast_node", ptr %this1, i32 0, i32 3
  %2 = load i8, ptr %_test, align 1
  %conv2 = sext i8 %2 to i32
  switch i32 %conv2, label %sw.default [
    i32 1, label %sw.bb
    i32 2, label %sw.bb6
    i32 3, label %sw.bb9
    i32 5, label %sw.bb15
    i32 4, label %sw.bb22
    i32 6, label %sw.bb28
    i32 7, label %sw.bb41
    i32 8, label %sw.bb47
  ]

sw.bb:                                            ; preds = %entry
  %3 = load i32, ptr %type, align 4
  %cmp = icmp eq i32 %3, 2
  br i1 %cmp, label %land.lhs.true, label %if.end

land.lhs.true:                                    ; preds = %sw.bb
  %4 = load ptr, ptr %n.addr, align 8
  %name = getelementptr inbounds %"struct.pugi::xml_node_struct", ptr %4, i32 0, i32 1
  %5 = load ptr, ptr %name, align 8
  %tobool = icmp ne ptr %5, null
  br i1 %tobool, label %land.lhs.true3, label %if.end

land.lhs.true3:                                   ; preds = %land.lhs.true
  %6 = load ptr, ptr %n.addr, align 8
  %name4 = getelementptr inbounds %"struct.pugi::xml_node_struct", ptr %6, i32 0, i32 1
  %7 = load ptr, ptr %name4, align 8
  %_data = getelementptr inbounds %"class.pugi::impl::(anonymous namespace)::xpath_ast_node", ptr %this1, i32 0, i32 7
  %8 = load ptr, ptr %_data, align 8
  %call = call noundef zeroext i1 @_ZN4pugi4impl12_GLOBAL__N_18strequalEPKcS3_(ptr noundef %7, ptr noundef %8)
  br i1 %call, label %if.then, label %if.end

if.then:                                          ; preds = %land.lhs.true3
  %9 = load ptr, ptr %ns.addr, align 8
  %10 = load ptr, ptr %n.addr, align 8
  call void @_ZN4pugi8xml_nodeC1EPNS_15xml_node_structE(ptr noundef nonnull align 8 dereferenceable(8) %ref.tmp5, ptr noundef %10)
  call void @_ZN4pugi10xpath_nodeC1ERKNS_8xml_nodeE(ptr noundef nonnull align 8 dereferenceable(16) %ref.tmp, ptr noundef nonnull align 8 dereferenceable(8) %ref.tmp5)
  %11 = load ptr, ptr %alloc.addr, align 8
  call void @_ZN4pugi4impl12_GLOBAL__N_118xpath_node_set_raw9push_backERKNS_10xpath_nodeEPNS1_15xpath_allocatorE(ptr noundef nonnull align 8 dereferenceable(32) %9, ptr noundef nonnull align 8 dereferenceable(16) %ref.tmp, ptr noundef %11)
  store i1 true, ptr %retval, align 1
  br label %return

if.end:                                           ; preds = %land.lhs.true3, %land.lhs.true, %sw.bb
  br label %sw.epilog

sw.bb6:                                           ; preds = %entry
  %12 = load ptr, ptr %ns.addr, align 8
  %13 = load ptr, ptr %n.addr, align 8
  call void @_ZN4pugi8xml_nodeC1EPNS_15xml_node_structE(ptr noundef nonnull align 8 dereferenceable(8) %ref.tmp8, ptr noundef %13)
  call void @_ZN4pugi10xpath_nodeC1ERKNS_8xml_nodeE(ptr noundef nonnull align 8 dereferenceable(16) %ref.tmp7, ptr noundef nonnull align 8 dereferenceable(8) %ref.tmp8)
  %14 = load ptr, ptr %alloc.addr, align 8
  call void @_ZN4pugi4impl12_GLOBAL__N_118xpath_node_set_raw9push_backERKNS_10xpath_nodeEPNS1_15xpath_allocatorE(ptr noundef nonnull align 8 dereferenceable(32) %12, ptr noundef nonnull align 8 dereferenceable(16) %ref.tmp7, ptr noundef %14)
  store i1 true, ptr %retval, align 1
  br label %return

sw.bb9:                                           ; preds = %entry
  %15 = load i32, ptr %type, align 4
  %cmp10 = icmp eq i32 %15, 5
  br i1 %cmp10, label %if.then11, label %if.end14

if.then11:                                        ; preds = %sw.bb9
  %16 = load ptr, ptr %ns.addr, align 8
  %17 = load ptr, ptr %n.addr, align 8
  call void @_ZN4pugi8xml_nodeC1EPNS_15xml_node_structE(ptr noundef nonnull align 8 dereferenceable(8) %ref.tmp13, ptr noundef %17)
  call void @_ZN4pugi10xpath_nodeC1ERKNS_8xml_nodeE(ptr noundef nonnull align 8 dereferenceable(16) %ref.tmp12, ptr noundef nonnull align 8 dereferenceable(8) %ref.tmp13)
  %18 = load ptr, ptr %alloc.addr, align 8
  call void @_ZN4pugi4impl12_GLOBAL__N_118xpath_node_set_raw9push_backERKNS_10xpath_nodeEPNS1_15xpath_allocatorE(ptr noundef nonnull align 8 dereferenceable(32) %16, ptr noundef nonnull align 8 dereferenceable(16) %ref.tmp12, ptr noundef %18)
  store i1 true, ptr %retval, align 1
  br label %return

if.end14:                                         ; preds = %sw.bb9
  br label %sw.epilog

sw.bb15:                                          ; preds = %entry
  %19 = load i32, ptr %type, align 4
  %cmp16 = icmp eq i32 %19, 3
  br i1 %cmp16, label %if.then18, label %lor.lhs.false

lor.lhs.false:                                    ; preds = %sw.bb15
  %20 = load i32, ptr %type, align 4
  %cmp17 = icmp eq i32 %20, 4
  br i1 %cmp17, label %if.then18, label %if.end21

if.then18:                                        ; preds = %lor.lhs.false, %sw.bb15
  %21 = load ptr, ptr %ns.addr, align 8
  %22 = load ptr, ptr %n.addr, align 8
  call void @_ZN4pugi8xml_nodeC1EPNS_15xml_node_structE(ptr noundef nonnull align 8 dereferenceable(8) %ref.tmp20, ptr noundef %22)
  call void @_ZN4pugi10xpath_nodeC1ERKNS_8xml_nodeE(ptr noundef nonnull align 8 dereferenceable(16) %ref.tmp19, ptr noundef nonnull align 8 dereferenceable(8) %ref.tmp20)
  %23 = load ptr, ptr %alloc.addr, align 8
  call void @_ZN4pugi4impl12_GLOBAL__N_118xpath_node_set_raw9push_backERKNS_10xpath_nodeEPNS1_15xpath_allocatorE(ptr noundef nonnull align 8 dereferenceable(32) %21, ptr noundef nonnull align 8 dereferenceable(16) %ref.tmp19, ptr noundef %23)
  store i1 true, ptr %retval, align 1
  br label %return

if.end21:                                         ; preds = %lor.lhs.false
  br label %sw.epilog

sw.bb22:                                          ; preds = %entry
  %24 = load i32, ptr %type, align 4
  %cmp23 = icmp eq i32 %24, 6
  br i1 %cmp23, label %if.then24, label %if.end27

if.then24:                                        ; preds = %sw.bb22
  %25 = load ptr, ptr %ns.addr, align 8
  %26 = load ptr, ptr %n.addr, align 8
  call void @_ZN4pugi8xml_nodeC1EPNS_15xml_node_structE(ptr noundef nonnull align 8 dereferenceable(8) %ref.tmp26, ptr noundef %26)
  call void @_ZN4pugi10xpath_nodeC1ERKNS_8xml_nodeE(ptr noundef nonnull align 8 dereferenceable(16) %ref.tmp25, ptr noundef nonnull align 8 dereferenceable(8) %ref.tmp26)
  %27 = load ptr, ptr %alloc.addr, align 8
  call void @_ZN4pugi4impl12_GLOBAL__N_118xpath_node_set_raw9push_backERKNS_10xpath_nodeEPNS1_15xpath_allocatorE(ptr noundef nonnull align 8 dereferenceable(32) %25, ptr noundef nonnull align 8 dereferenceable(16) %ref.tmp25, ptr noundef %27)
  store i1 true, ptr %retval, align 1
  br label %return

if.end27:                                         ; preds = %sw.bb22
  br label %sw.epilog

sw.bb28:                                          ; preds = %entry
  %28 = load i32, ptr %type, align 4
  %cmp29 = icmp eq i32 %28, 6
  br i1 %cmp29, label %land.lhs.true30, label %if.end40

land.lhs.true30:                                  ; preds = %sw.bb28
  %29 = load ptr, ptr %n.addr, align 8
  %name31 = getelementptr inbounds %"struct.pugi::xml_node_struct", ptr %29, i32 0, i32 1
  %30 = load ptr, ptr %name31, align 8
  %tobool32 = icmp ne ptr %30, null
  br i1 %tobool32, label %land.lhs.true33, label %if.end40

land.lhs.true33:                                  ; preds = %land.lhs.true30
  %31 = load ptr, ptr %n.addr, align 8
  %name34 = getelementptr inbounds %"struct.pugi::xml_node_struct", ptr %31, i32 0, i32 1
  %32 = load ptr, ptr %name34, align 8
  %_data35 = getelementptr inbounds %"class.pugi::impl::(anonymous namespace)::xpath_ast_node", ptr %this1, i32 0, i32 7
  %33 = load ptr, ptr %_data35, align 8
  %call36 = call noundef zeroext i1 @_ZN4pugi4impl12_GLOBAL__N_18strequalEPKcS3_(ptr noundef %32, ptr noundef %33)
  br i1 %call36, label %if.then37, label %if.end40

if.then37:                                        ; preds = %land.lhs.true33
  %34 = load ptr, ptr %ns.addr, align 8
  %35 = load ptr, ptr %n.addr, align 8
  call void @_ZN4pugi8xml_nodeC1EPNS_15xml_node_structE(ptr noundef nonnull align 8 dereferenceable(8) %ref.tmp39, ptr noundef %35)
  call void @_ZN4pugi10xpath_nodeC1ERKNS_8xml_nodeE(ptr noundef nonnull align 8 dereferenceable(16) %ref.tmp38, ptr noundef nonnull align 8 dereferenceable(8) %ref.tmp39)
  %36 = load ptr, ptr %alloc.addr, align 8
  call void @_ZN4pugi4impl12_GLOBAL__N_118xpath_node_set_raw9push_backERKNS_10xpath_nodeEPNS1_15xpath_allocatorE(ptr noundef nonnull align 8 dereferenceable(32) %34, ptr noundef nonnull align 8 dereferenceable(16) %ref.tmp38, ptr noundef %36)
  store i1 true, ptr %retval, align 1
  br label %return

if.end40:                                         ; preds = %land.lhs.true33, %land.lhs.true30, %sw.bb28
  br label %sw.epilog

sw.bb41:                                          ; preds = %entry
  %37 = load i32, ptr %type, align 4
  %cmp42 = icmp eq i32 %37, 2
  br i1 %cmp42, label %if.then43, label %if.end46

if.then43:                                        ; preds = %sw.bb41
  %38 = load ptr, ptr %ns.addr, align 8
  %39 = load ptr, ptr %n.addr, align 8
  call void @_ZN4pugi8xml_nodeC1EPNS_15xml_node_structE(ptr noundef nonnull align 8 dereferenceable(8) %ref.tmp45, ptr noundef %39)
  call void @_ZN4pugi10xpath_nodeC1ERKNS_8xml_nodeE(ptr noundef nonnull align 8 dereferenceable(16) %ref.tmp44, ptr noundef nonnull align 8 dereferenceable(8) %ref.tmp45)
  %40 = load ptr, ptr %alloc.addr, align 8
  call void @_ZN4pugi4impl12_GLOBAL__N_118xpath_node_set_raw9push_backERKNS_10xpath_nodeEPNS1_15xpath_allocatorE(ptr noundef nonnull align 8 dereferenceable(32) %38, ptr noundef nonnull align 8 dereferenceable(16) %ref.tmp44, ptr noundef %40)
  store i1 true, ptr %retval, align 1
  br label %return

if.end46:                                         ; preds = %sw.bb41
  br label %sw.epilog

sw.bb47:                                          ; preds = %entry
  %41 = load i32, ptr %type, align 4
  %cmp48 = icmp eq i32 %41, 2
  br i1 %cmp48, label %land.lhs.true49, label %if.end59

land.lhs.true49:                                  ; preds = %sw.bb47
  %42 = load ptr, ptr %n.addr, align 8
  %name50 = getelementptr inbounds %"struct.pugi::xml_node_struct", ptr %42, i32 0, i32 1
  %43 = load ptr, ptr %name50, align 8
  %tobool51 = icmp ne ptr %43, null
  br i1 %tobool51, label %land.lhs.true52, label %if.end59

land.lhs.true52:                                  ; preds = %land.lhs.true49
  %44 = load ptr, ptr %n.addr, align 8
  %name53 = getelementptr inbounds %"struct.pugi::xml_node_struct", ptr %44, i32 0, i32 1
  %45 = load ptr, ptr %name53, align 8
  %_data54 = getelementptr inbounds %"class.pugi::impl::(anonymous namespace)::xpath_ast_node", ptr %this1, i32 0, i32 7
  %46 = load ptr, ptr %_data54, align 8
  %call55 = call noundef zeroext i1 @_ZN4pugi4impl12_GLOBAL__N_111starts_withEPKcS3_(ptr noundef %45, ptr noundef %46)
  br i1 %call55, label %if.then56, label %if.end59

if.then56:                                        ; preds = %land.lhs.true52
  %47 = load ptr, ptr %ns.addr, align 8
  %48 = load ptr, ptr %n.addr, align 8
  call void @_ZN4pugi8xml_nodeC1EPNS_15xml_node_structE(ptr noundef nonnull align 8 dereferenceable(8) %ref.tmp58, ptr noundef %48)
  call void @_ZN4pugi10xpath_nodeC1ERKNS_8xml_nodeE(ptr noundef nonnull align 8 dereferenceable(16) %ref.tmp57, ptr noundef nonnull align 8 dereferenceable(8) %ref.tmp58)
  %49 = load ptr, ptr %alloc.addr, align 8
  call void @_ZN4pugi4impl12_GLOBAL__N_118xpath_node_set_raw9push_backERKNS_10xpath_nodeEPNS1_15xpath_allocatorE(ptr noundef nonnull align 8 dereferenceable(32) %47, ptr noundef nonnull align 8 dereferenceable(16) %ref.tmp57, ptr noundef %49)
  store i1 true, ptr %retval, align 1
  br label %return

if.end59:                                         ; preds = %land.lhs.true52, %land.lhs.true49, %sw.bb47
  br label %sw.epilog

sw.default:                                       ; preds = %entry
  br label %sw.epilog

sw.epilog:                                        ; preds = %sw.default, %if.end59, %if.end46, %if.end40, %if.end27, %if.end21, %if.end14, %if.end
  store i1 false, ptr %retval, align 1
  br label %return

return:                                           ; preds = %sw.epilog, %if.then56, %if.then43, %if.then37, %if.then24, %if.then18, %if.then11, %sw.bb6, %if.then
  %50 = load i1, ptr %retval, align 1
  ret i1 %50
}