; Function Attrs: mustprogress uwtable
define internal fastcc noundef zeroext i1 @_ZN4pugi4impl12_GLOBAL__N_114xpath_ast_node9step_pushERNS1_18xpath_node_set_rawEPNS_15xml_node_structEPNS1_15xpath_allocatorE(i8 %this.3.val, ptr nocapture readonly %this.32.val, ptr nocapture noundef nonnull align 8 dereferenceable(32) %ns, ptr noundef %n, ptr nocapture noundef %alloc) unnamed_addr #6 align 2 {
entry:
  %ref.tmp = alloca %"class.pugi::xpath_node", align 8
  %ref.tmp5 = alloca %"class.pugi::xml_node", align 8
  %ref.tmp7 = alloca %"class.pugi::xpath_node", align 8
  %ref.tmp8 = alloca %"class.pugi::xml_node", align 8
  %ref.tmp12 = alloca %"class.pugi::xpath_node", align 8
  %ref.tmp13 = alloca %"class.pugi::xml_node", align 8
  %ref.tmp19 = alloca %"class.pugi::xpath_node", align 8
  %ref.tmp20 = alloca %"class.pugi::xml_node", align 8
  %ref.tmp25 = alloca %"class.pugi::xpath_node", align 8
  %ref.tmp26 = alloca %"class.pugi::xml_node", align 8
  %ref.tmp38 = alloca %"class.pugi::xpath_node", align 8
  %ref.tmp39 = alloca %"class.pugi::xml_node", align 8
  %ref.tmp44 = alloca %"class.pugi::xpath_node", align 8
  %ref.tmp45 = alloca %"class.pugi::xml_node", align 8
  %ref.tmp57 = alloca %"class.pugi::xpath_node", align 8
  %ref.tmp58 = alloca %"class.pugi::xml_node", align 8
  %0 = load i64, ptr %n, align 8
  %1 = trunc i64 %0 to i32
  %conv = and i32 %1, 15
  switch i8 %this.3.val, label %return [
    i8 1, label %sw.bb
    i8 2, label %sw.bb6
    i8 3, label %sw.bb9
    i8 5, label %sw.bb15
    i8 4, label %sw.bb22
    i8 6, label %sw.bb28
    i8 7, label %sw.bb41
    i8 8, label %sw.bb47
  ]

sw.bb:                                            ; preds = %entry
  %cmp = icmp eq i32 %conv, 2
  br i1 %cmp, label %land.lhs.true, label %return

land.lhs.true:                                    ; preds = %sw.bb
  %name = getelementptr inbounds i8, ptr %n, i64 8
  %2 = load ptr, ptr %name, align 8
  %tobool.not = icmp eq ptr %2, null
  br i1 %tobool.not, label %return, label %land.lhs.true3

land.lhs.true3:                                   ; preds = %land.lhs.true
  %call.i = tail call i32 @strcmp(ptr noundef nonnull dereferenceable(1) %2, ptr noundef nonnull dereferenceable(1) %this.32.val) #43
  %cmp.i = icmp eq i32 %call.i, 0
  br i1 %cmp.i, label %if.then, label %return

if.then:                                          ; preds = %land.lhs.true3
  call void @_ZN4pugi8xml_nodeC1EPNS_15xml_node_structE(ptr noundef nonnull align 8 dereferenceable(8) %ref.tmp5, ptr noundef nonnull %n)
  call void @_ZN4pugi10xpath_nodeC1ERKNS_8xml_nodeE(ptr noundef nonnull align 8 dereferenceable(16) %ref.tmp, ptr noundef nonnull align 8 dereferenceable(8) %ref.tmp5)
  br label %return.sink.split

sw.bb6:                                           ; preds = %entry
  call void @_ZN4pugi8xml_nodeC1EPNS_15xml_node_structE(ptr noundef nonnull align 8 dereferenceable(8) %ref.tmp8, ptr noundef nonnull %n)
  call void @_ZN4pugi10xpath_nodeC1ERKNS_8xml_nodeE(ptr noundef nonnull align 8 dereferenceable(16) %ref.tmp7, ptr noundef nonnull align 8 dereferenceable(8) %ref.tmp8)
  br label %return.sink.split

sw.bb9:                                           ; preds = %entry
  %cmp10 = icmp eq i32 %conv, 5
  br i1 %cmp10, label %if.then11, label %return

if.then11:                                        ; preds = %sw.bb9
  call void @_ZN4pugi8xml_nodeC1EPNS_15xml_node_structE(ptr noundef nonnull align 8 dereferenceable(8) %ref.tmp13, ptr noundef nonnull %n)
  call void @_ZN4pugi10xpath_nodeC1ERKNS_8xml_nodeE(ptr noundef nonnull align 8 dereferenceable(16) %ref.tmp12, ptr noundef nonnull align 8 dereferenceable(8) %ref.tmp13)
  br label %return.sink.split

sw.bb15:                                          ; preds = %entry
  %3 = add nsw i32 %conv, -3
  %or.cond = icmp ult i32 %3, 2
  br i1 %or.cond, label %if.then18, label %return

if.then18:                                        ; preds = %sw.bb15
  call void @_ZN4pugi8xml_nodeC1EPNS_15xml_node_structE(ptr noundef nonnull align 8 dereferenceable(8) %ref.tmp20, ptr noundef nonnull %n)
  call void @_ZN4pugi10xpath_nodeC1ERKNS_8xml_nodeE(ptr noundef nonnull align 8 dereferenceable(16) %ref.tmp19, ptr noundef nonnull align 8 dereferenceable(8) %ref.tmp20)
  br label %return.sink.split

sw.bb22:                                          ; preds = %entry
  %cmp23 = icmp eq i32 %conv, 6
  br i1 %cmp23, label %if.then24, label %return

if.then24:                                        ; preds = %sw.bb22
  call void @_ZN4pugi8xml_nodeC1EPNS_15xml_node_structE(ptr noundef nonnull align 8 dereferenceable(8) %ref.tmp26, ptr noundef nonnull %n)
  call void @_ZN4pugi10xpath_nodeC1ERKNS_8xml_nodeE(ptr noundef nonnull align 8 dereferenceable(16) %ref.tmp25, ptr noundef nonnull align 8 dereferenceable(8) %ref.tmp26)
  br label %return.sink.split

sw.bb28:                                          ; preds = %entry
  %cmp29 = icmp eq i32 %conv, 6
  br i1 %cmp29, label %land.lhs.true30, label %return

land.lhs.true30:                                  ; preds = %sw.bb28
  %name31 = getelementptr inbounds i8, ptr %n, i64 8
  %4 = load ptr, ptr %name31, align 8
  %tobool32.not = icmp eq ptr %4, null
  br i1 %tobool32.not, label %return, label %land.lhs.true33

land.lhs.true33:                                  ; preds = %land.lhs.true30
  %call.i38 = tail call i32 @strcmp(ptr noundef nonnull dereferenceable(1) %4, ptr noundef nonnull dereferenceable(1) %this.32.val) #43
  %cmp.i39 = icmp eq i32 %call.i38, 0
  br i1 %cmp.i39, label %if.then37, label %return

if.then37:                                        ; preds = %land.lhs.true33
  call void @_ZN4pugi8xml_nodeC1EPNS_15xml_node_structE(ptr noundef nonnull align 8 dereferenceable(8) %ref.tmp39, ptr noundef nonnull %n)
  call void @_ZN4pugi10xpath_nodeC1ERKNS_8xml_nodeE(ptr noundef nonnull align 8 dereferenceable(16) %ref.tmp38, ptr noundef nonnull align 8 dereferenceable(8) %ref.tmp39)
  br label %return.sink.split

sw.bb41:                                          ; preds = %entry
  %cmp42 = icmp eq i32 %conv, 2
  br i1 %cmp42, label %if.then43, label %return

if.then43:                                        ; preds = %sw.bb41
  call void @_ZN4pugi8xml_nodeC1EPNS_15xml_node_structE(ptr noundef nonnull align 8 dereferenceable(8) %ref.tmp45, ptr noundef nonnull %n)
  call void @_ZN4pugi10xpath_nodeC1ERKNS_8xml_nodeE(ptr noundef nonnull align 8 dereferenceable(16) %ref.tmp44, ptr noundef nonnull align 8 dereferenceable(8) %ref.tmp45)
  br label %return.sink.split

sw.bb47:                                          ; preds = %entry
  %cmp48 = icmp eq i32 %conv, 2
  br i1 %cmp48, label %land.lhs.true49, label %return

land.lhs.true49:                                  ; preds = %sw.bb47
  %name50 = getelementptr inbounds i8, ptr %n, i64 8
  %5 = load ptr, ptr %name50, align 8
  %tobool51.not = icmp eq ptr %5, null
  br i1 %tobool51.not, label %return, label %land.lhs.true52

land.lhs.true52:                                  ; preds = %land.lhs.true49
  %6 = load i8, ptr %this.32.val, align 1
  %tobool.not5.i = icmp eq i8 %6, 0
  br i1 %tobool.not5.i, label %if.then56, label %land.rhs.i

land.rhs.i:                                       ; preds = %land.lhs.true52, %while.body.i
  %7 = phi i8 [ %9, %while.body.i ], [ %6, %land.lhs.true52 ]
  %pattern.addr.07.i = phi ptr [ %incdec.ptr2.i, %while.body.i ], [ %this.32.val, %land.lhs.true52 ]
  %string.addr.06.i = phi ptr [ %incdec.ptr.i, %while.body.i ], [ %5, %land.lhs.true52 ]
  %8 = load i8, ptr %string.addr.06.i, align 1
  %cmp.i40 = icmp eq i8 %8, %7
  br i1 %cmp.i40, label %while.body.i, label %return

while.body.i:                                     ; preds = %land.rhs.i
  %incdec.ptr.i = getelementptr inbounds i8, ptr %string.addr.06.i, i64 1
  %incdec.ptr2.i = getelementptr inbounds i8, ptr %pattern.addr.07.i, i64 1
  %9 = load i8, ptr %incdec.ptr2.i, align 1
  %tobool.not.i = icmp eq i8 %9, 0
  br i1 %tobool.not.i, label %if.then56, label %land.rhs.i, !llvm.loop !188

if.then56:                                        ; preds = %while.body.i, %land.lhs.true52
  call void @_ZN4pugi8xml_nodeC1EPNS_15xml_node_structE(ptr noundef nonnull align 8 dereferenceable(8) %ref.tmp58, ptr noundef nonnull %n)
  call void @_ZN4pugi10xpath_nodeC1ERKNS_8xml_nodeE(ptr noundef nonnull align 8 dereferenceable(16) %ref.tmp57, ptr noundef nonnull align 8 dereferenceable(8) %ref.tmp58)
  br label %return.sink.split

return.sink.split:                                ; preds = %if.then, %sw.bb6, %if.then11, %if.then18, %if.then24, %if.then37, %if.then43, %if.then56
  %ref.tmp57.sink = phi ptr [ %ref.tmp57, %if.then56 ], [ %ref.tmp44, %if.then43 ], [ %ref.tmp38, %if.then37 ], [ %ref.tmp25, %if.then24 ], [ %ref.tmp19, %if.then18 ], [ %ref.tmp12, %if.then11 ], [ %ref.tmp7, %sw.bb6 ], [ %ref.tmp, %if.then ]
  call fastcc void @_ZN4pugi4impl12_GLOBAL__N_118xpath_node_set_raw9push_backERKNS_10xpath_nodeEPNS1_15xpath_allocatorE(ptr noundef nonnull align 8 dereferenceable(32) %ns, ptr noundef nonnull align 8 dereferenceable(16) %ref.tmp57.sink, ptr noundef %alloc)
  br label %return

return:                                           ; preds = %land.rhs.i, %return.sink.split, %land.lhs.true3, %land.lhs.true, %sw.bb, %sw.bb9, %sw.bb15, %sw.bb22, %land.lhs.true33, %land.lhs.true30, %sw.bb28, %sw.bb41, %land.lhs.true49, %sw.bb47, %entry
  %retval.0 = phi i1 [ false, %entry ], [ false, %sw.bb47 ], [ false, %land.lhs.true49 ], [ false, %sw.bb41 ], [ false, %sw.bb28 ], [ false, %land.lhs.true30 ], [ false, %land.lhs.true33 ], [ false, %sw.bb22 ], [ false, %sw.bb15 ], [ false, %sw.bb9 ], [ false, %sw.bb ], [ false, %land.lhs.true ], [ false, %land.lhs.true3 ], [ true, %return.sink.split ], [ false, %land.rhs.i ]
  ret i1 %retval.0
}